; Function Attrs: mustprogress nounwind uwtable
define dso_local { i32, ptr } @_ZN5clang15make_error_codeENS_18BuildPreambleErrorE(i32 noundef %0) local_unnamed_addr #0 {
  %2 = load atomic i64, ptr @_ZL24BuildPreambleErrCategory acquire, align 8
  %.not.i = icmp eq i64 %2, 0
  br i1 %.not.i, label %3, label %_ZN4llvm13ManagedStaticIN5clang26BuildPreambleErrorCategoryENS_14object_creatorIS2_EENS_14object_deleterIS2_EEEdeEv.exit

3:                                                ; preds = %1
  tail call void @_ZNK4llvm17ManagedStaticBase21RegisterManagedStaticEPFPvvEPFvS1_E(ptr noundef nonnull align 8 dereferenceable(24) @_ZL24BuildPreambleErrCategory, ptr noundef nonnull @_ZN4llvm14object_creatorIN5clang26BuildPreambleErrorCategoryEE4callEv, ptr noundef nonnull @_ZN4llvm14object_deleterIN5clang26BuildPreambleErrorCategoryEE4callEPv) #21
  br label %_ZN4llvm13ManagedStaticIN5clang26BuildPreambleErrorCategoryENS_14object_creatorIS2_EENS_14object_deleterIS2_EEEdeEv.exit

_ZN4llvm13ManagedStaticIN5clang26BuildPreambleErrorCategoryENS_14object_creatorIS2_EENS_14object_deleterIS2_EEEdeEv.exit: ; preds = %1, %3
  %4 = load atomic i64, ptr @_ZL24BuildPreambleErrCategory monotonic, align 8
  %.0.i2.i = inttoptr i64 %4 to ptr
  %.fca.0.insert = insertvalue { i32, ptr } poison, i32 %0, 0
  %.fca.1.insert = insertvalue { i32, ptr } %.fca.0.insert, ptr %.0.i2.i, 1
  ret { i32, ptr } %.fca.1.insert
}